; Function Attrs: nounwind uwtable
define dso_local void @brin_page_init(ptr noundef %0, i16 noundef zeroext %1) local_unnamed_addr #0 {
  tail call void @PageInit(ptr noundef %0, i64 noundef 8192, i64 noundef 8) #5
  %3 = getelementptr inbounds nuw i8, ptr %0, i64 16
  %4 = load i16, ptr %3, align 4
  %5 = zext i16 %4 to i64
  %6 = getelementptr inbounds nuw i8, ptr %0, i64 %5
  %7 = getelementptr inbounds nuw i8, ptr %6, i64 6
  store i16 %1, ptr %7, align 2
  ret void
}